; Function Attrs: mustprogress nounwind uwtable
define hidden noundef zeroext i1 @_ZN14ZPageAllocator11prime_cacheEP8ZWorkersm(ptr noundef nonnull align 8 dereferenceable(609) %0, ptr noundef %1, i64 noundef %2) local_unnamed_addr #1 align 2 {
  %4 = alloca %class.ZPreTouchTask, align 8
  %5 = tail call noundef ptr @_ZN14ZPageAllocator10alloc_pageE9ZPageTypem16ZAllocationFlags8ZPageAge(ptr noundef nonnull align 8 dereferenceable(609) %0, i8 noundef zeroext 2, i64 noundef %2, i8 5, i8 noundef zeroext 0)
  %6 = icmp ne ptr %5, null
  br i1 %6, label %7, label %20

7:                                                ; preds = %3
  %8 = load i8, ptr @AlwaysPreTouch, align 1
  %9 = trunc i8 %8 to i1
  br i1 %9, label %10, label %19

10:                                               ; preds = %7
  %11 = getelementptr inbounds i8, ptr %0, i64 232
  %12 = getelementptr inbounds i8, ptr %5, i64 16
  %13 = load i64, ptr %12, align 8
  %14 = getelementptr inbounds i8, ptr %5, i64 24
  %15 = load i64, ptr %14, align 8
  call void @_ZN5ZTaskC2EPKc(ptr noundef nonnull align 8 dereferenceable(40) %4, ptr noundef nonnull @.str.30) #13
  store ptr getelementptr inbounds inrange(-16, 8) (i8, ptr @_ZTV13ZPreTouchTask, i64 16), ptr %4, align 8
  %16 = getelementptr inbounds i8, ptr %4, i64 40
  store ptr %11, ptr %16, align 8
  %17 = getelementptr inbounds i8, ptr %4, i64 48
  store volatile i64 %13, ptr %17, align 8
  %18 = getelementptr inbounds i8, ptr %4, i64 56
  store i64 %15, ptr %18, align 8
  call void @_ZN8ZWorkers7run_allEP5ZTask(ptr noundef nonnull align 8 dereferenceable(184) %1, ptr noundef nonnull %4) #13
  br label %19

19:                                               ; preds = %10, %7
  call void @_ZN14ZPageAllocator9free_pageEP5ZPage(ptr noundef nonnull align 8 dereferenceable(609) %0, ptr noundef nonnull %5)
  br label %20

20:                                               ; preds = %3, %19
  ret i1 %6
}